target datalayout = "e-m:e-p270:32:32-p271:32:32-p272:64:64-i64:64-i128:128-f80:128-n8:16:32:64-S128"
target triple = "x86_64-pc-linux-gnu"

%struct.mbedtls_poly1305_context = type { [4 x i32], [4 x i32], [5 x i32], [16 x i8], i64 }

; Function Attrs: alwaysinline nounwind uwtable
define internal void @mbedtls_put_unaligned_uint32(ptr noundef %0, i32 noundef %1) #2 {
  %3 = alloca ptr, align 8
  %4 = alloca i32, align 4
  store ptr %0, ptr %3, align 8, !tbaa !15
  store i32 %1, ptr %4, align 4, !tbaa !10
  %5 = load ptr, ptr %3, align 8, !tbaa !15
  call void @llvm.memcpy.p0.p0.i64(ptr align 1 %5, ptr align 4 %4, i64 4, i1 false)
  ret void
}

; Function Attrs: nounwind uwtable
define internal void @poly1305_compute_mac(ptr noundef %0, ptr noundef %1) #0 {
  %3 = alloca ptr, align 8
  %4 = alloca ptr, align 8
  %5 = alloca i64, align 8
  %6 = alloca i32, align 4
  %7 = alloca i32, align 4
  %8 = alloca i32, align 4
  %9 = alloca i32, align 4
  %10 = alloca i32, align 4
  %11 = alloca i32, align 4
  %12 = alloca i32, align 4
  %13 = alloca i32, align 4
  %14 = alloca i32, align 4
  %15 = alloca i32, align 4
  %16 = alloca i32, align 4
  %17 = alloca i32, align 4
  store ptr %0, ptr %3, align 8, !tbaa !3
  store ptr %1, ptr %4, align 8, !tbaa !8
  call void @llvm.lifetime.start.p0(i64 8, ptr %5) #8
  call void @llvm.lifetime.start.p0(i64 4, ptr %6) #8
  call void @llvm.lifetime.start.p0(i64 4, ptr %7) #8
  call void @llvm.lifetime.start.p0(i64 4, ptr %8) #8
  call void @llvm.lifetime.start.p0(i64 4, ptr %9) #8
  call void @llvm.lifetime.start.p0(i64 4, ptr %10) #8
  call void @llvm.lifetime.start.p0(i64 4, ptr %11) #8
  call void @llvm.lifetime.start.p0(i64 4, ptr %12) #8
  call void @llvm.lifetime.start.p0(i64 4, ptr %13) #8
  call void @llvm.lifetime.start.p0(i64 4, ptr %14) #8
  call void @llvm.lifetime.start.p0(i64 4, ptr %15) #8
  call void @llvm.lifetime.start.p0(i64 4, ptr %16) #8
  call void @llvm.lifetime.start.p0(i64 4, ptr %17) #8
  %18 = load ptr, ptr %3, align 8, !tbaa !3
  %19 = getelementptr inbounds nuw %struct.mbedtls_poly1305_context, ptr %18, i32 0, i32 2
  %20 = getelementptr inbounds [5 x i32], ptr %19, i64 0, i64 0
  %21 = load i32, ptr %20, align 8, !tbaa !10
  store i32 %21, ptr %11, align 4, !tbaa !10
  %22 = load ptr, ptr %3, align 8, !tbaa !3
  %23 = getelementptr inbounds nuw %struct.mbedtls_poly1305_context, ptr %22, i32 0, i32 2
  %24 = getelementptr inbounds [5 x i32], ptr %23, i64 0, i64 1
  %25 = load i32, ptr %24, align 4, !tbaa !10
  store i32 %25, ptr %12, align 4, !tbaa !10
  %26 = load ptr, ptr %3, align 8, !tbaa !3
  %27 = getelementptr inbounds nuw %struct.mbedtls_poly1305_context, ptr %26, i32 0, i32 2
  %28 = getelementptr inbounds [5 x i32], ptr %27, i64 0, i64 2
  %29 = load i32, ptr %28, align 8, !tbaa !10
  store i32 %29, ptr %13, align 4, !tbaa !10
  %30 = load ptr, ptr %3, align 8, !tbaa !3
  %31 = getelementptr inbounds nuw %struct.mbedtls_poly1305_context, ptr %30, i32 0, i32 2
  %32 = getelementptr inbounds [5 x i32], ptr %31, i64 0, i64 3
  %33 = load i32, ptr %32, align 4, !tbaa !10
  store i32 %33, ptr %14, align 4, !tbaa !10
  %34 = load ptr, ptr %3, align 8, !tbaa !3
  %35 = getelementptr inbounds nuw %struct.mbedtls_poly1305_context, ptr %34, i32 0, i32 2
  %36 = getelementptr inbounds [5 x i32], ptr %35, i64 0, i64 4
  %37 = load i32, ptr %36, align 8, !tbaa !10
  store i32 %37, ptr %15, align 4, !tbaa !10
  %38 = load i32, ptr %11, align 4, !tbaa !10
  %39 = zext i32 %38 to i64
  %40 = add i64 %39, 5
  store i64 %40, ptr %5, align 8, !tbaa !16
  %41 = load i64, ptr %5, align 8, !tbaa !16
  %42 = trunc i64 %41 to i32
  store i32 %42, ptr %6, align 4, !tbaa !10
  %43 = load i32, ptr %12, align 4, !tbaa !10
  %44 = zext i32 %43 to i64
  %45 = load i64, ptr %5, align 8, !tbaa !16
  %46 = lshr i64 %45, 32
  %47 = add i64 %44, %46
  store i64 %47, ptr %5, align 8, !tbaa !16
  %48 = load i64, ptr %5, align 8, !tbaa !16
  %49 = trunc i64 %48 to i32
  store i32 %49, ptr %7, align 4, !tbaa !10
  %50 = load i32, ptr %13, align 4, !tbaa !10
  %51 = zext i32 %50 to i64
  %52 = load i64, ptr %5, align 8, !tbaa !16
  %53 = lshr i64 %52, 32
  %54 = add i64 %51, %53
  store i64 %54, ptr %5, align 8, !tbaa !16
  %55 = load i64, ptr %5, align 8, !tbaa !16
  %56 = trunc i64 %55 to i32
  store i32 %56, ptr %8, align 4, !tbaa !10
  %57 = load i32, ptr %14, align 4, !tbaa !10
  %58 = zext i32 %57 to i64
  %59 = load i64, ptr %5, align 8, !tbaa !16
  %60 = lshr i64 %59, 32
  %61 = add i64 %58, %60
  store i64 %61, ptr %5, align 8, !tbaa !16
  %62 = load i64, ptr %5, align 8, !tbaa !16
  %63 = trunc i64 %62 to i32
  store i32 %63, ptr %9, align 4, !tbaa !10
  %64 = load i32, ptr %15, align 4, !tbaa !10
  %65 = load i64, ptr %5, align 8, !tbaa !16
  %66 = lshr i64 %65, 32
  %67 = trunc i64 %66 to i32
  %68 = add i32 %64, %67
  store i32 %68, ptr %10, align 4, !tbaa !10
  %69 = load i32, ptr %10, align 4, !tbaa !10
  %70 = lshr i32 %69, 2
  %71 = sub i32 0, %70
  store i32 %71, ptr %16, align 4, !tbaa !10
  %72 = load i32, ptr %16, align 4, !tbaa !10
  %73 = xor i32 %72, -1
  store i32 %73, ptr %17, align 4, !tbaa !10
  %74 = load i32, ptr %11, align 4, !tbaa !10
  %75 = load i32, ptr %17, align 4, !tbaa !10
  %76 = and i32 %74, %75
  %77 = load i32, ptr %6, align 4, !tbaa !10
  %78 = load i32, ptr %16, align 4, !tbaa !10
  %79 = and i32 %77, %78
  %80 = or i32 %76, %79
  store i32 %80, ptr %11, align 4, !tbaa !10
  %81 = load i32, ptr %12, align 4, !tbaa !10
  %82 = load i32, ptr %17, align 4, !tbaa !10
  %83 = and i32 %81, %82
  %84 = load i32, ptr %7, align 4, !tbaa !10
  %85 = load i32, ptr %16, align 4, !tbaa !10
  %86 = and i32 %84, %85
  %87 = or i32 %83, %86
  store i32 %87, ptr %12, align 4, !tbaa !10
  %88 = load i32, ptr %13, align 4, !tbaa !10
  %89 = load i32, ptr %17, align 4, !tbaa !10
  %90 = and i32 %88, %89
  %91 = load i32, ptr %8, align 4, !tbaa !10
  %92 = load i32, ptr %16, align 4, !tbaa !10
  %93 = and i32 %91, %92
  %94 = or i32 %90, %93
  store i32 %94, ptr %13, align 4, !tbaa !10
  %95 = load i32, ptr %14, align 4, !tbaa !10
  %96 = load i32, ptr %17, align 4, !tbaa !10
  %97 = and i32 %95, %96
  %98 = load i32, ptr %9, align 4, !tbaa !10
  %99 = load i32, ptr %16, align 4, !tbaa !10
  %100 = and i32 %98, %99
  %101 = or i32 %97, %100
  store i32 %101, ptr %14, align 4, !tbaa !10
  %102 = load i32, ptr %11, align 4, !tbaa !10
  %103 = zext i32 %102 to i64
  %104 = load ptr, ptr %3, align 8, !tbaa !3
  %105 = getelementptr inbounds nuw %struct.mbedtls_poly1305_context, ptr %104, i32 0, i32 1
  %106 = getelementptr inbounds [4 x i32], ptr %105, i64 0, i64 0
  %107 = load i32, ptr %106, align 8, !tbaa !10
  %108 = zext i32 %107 to i64
  %109 = add i64 %103, %108
  store i64 %109, ptr %5, align 8, !tbaa !16
  %110 = load i64, ptr %5, align 8, !tbaa !16
  %111 = trunc i64 %110 to i32
  store i32 %111, ptr %11, align 4, !tbaa !10
  %112 = load i32, ptr %12, align 4, !tbaa !10
  %113 = zext i32 %112 to i64
  %114 = load ptr, ptr %3, align 8, !tbaa !3
  %115 = getelementptr inbounds nuw %struct.mbedtls_poly1305_context, ptr %114, i32 0, i32 1
  %116 = getelementptr inbounds [4 x i32], ptr %115, i64 0, i64 1
  %117 = load i32, ptr %116, align 4, !tbaa !10
  %118 = zext i32 %117 to i64
  %119 = add i64 %113, %118
  %120 = load i64, ptr %5, align 8, !tbaa !16
  %121 = lshr i64 %120, 32
  %122 = add i64 %119, %121
  store i64 %122, ptr %5, align 8, !tbaa !16
  %123 = load i64, ptr %5, align 8, !tbaa !16
  %124 = trunc i64 %123 to i32
  store i32 %124, ptr %12, align 4, !tbaa !10
  %125 = load i32, ptr %13, align 4, !tbaa !10
  %126 = zext i32 %125 to i64
  %127 = load ptr, ptr %3, align 8, !tbaa !3
  %128 = getelementptr inbounds nuw %struct.mbedtls_poly1305_context, ptr %127, i32 0, i32 1
  %129 = getelementptr inbounds [4 x i32], ptr %128, i64 0, i64 2
  %130 = load i32, ptr %129, align 8, !tbaa !10
  %131 = zext i32 %130 to i64
  %132 = add i64 %126, %131
  %133 = load i64, ptr %5, align 8, !tbaa !16
  %134 = lshr i64 %133, 32
  %135 = add i64 %132, %134
  store i64 %135, ptr %5, align 8, !tbaa !16
  %136 = load i64, ptr %5, align 8, !tbaa !16
  %137 = trunc i64 %136 to i32
  store i32 %137, ptr %13, align 4, !tbaa !10
  %138 = load ptr, ptr %3, align 8, !tbaa !3
  %139 = getelementptr inbounds nuw %struct.mbedtls_poly1305_context, ptr %138, i32 0, i32 1
  %140 = getelementptr inbounds [4 x i32], ptr %139, i64 0, i64 3
  %141 = load i32, ptr %140, align 4, !tbaa !10
  %142 = load i64, ptr %5, align 8, !tbaa !16
  %143 = lshr i64 %142, 32
  %144 = trunc i64 %143 to i32
  %145 = add i32 %141, %144
  %146 = load i32, ptr %14, align 4, !tbaa !10
  %147 = add i32 %146, %145
  store i32 %147, ptr %14, align 4, !tbaa !10
  %148 = load ptr, ptr %4, align 8, !tbaa !8
  %149 = getelementptr inbounds i8, ptr %148, i64 0
  %150 = load i32, ptr %11, align 4, !tbaa !10
  call void @mbedtls_put_unaligned_uint32(ptr noundef %149, i32 noundef %150)
  %151 = load ptr, ptr %4, align 8, !tbaa !8
  %152 = getelementptr inbounds i8, ptr %151, i64 4
  %153 = load i32, ptr %12, align 4, !tbaa !10
  call void @mbedtls_put_unaligned_uint32(ptr noundef %152, i32 noundef %153)
  %154 = load ptr, ptr %4, align 8, !tbaa !8
  %155 = getelementptr inbounds i8, ptr %154, i64 8
  %156 = load i32, ptr %13, align 4, !tbaa !10
  call void @mbedtls_put_unaligned_uint32(ptr noundef %155, i32 noundef %156)
  %157 = load ptr, ptr %4, align 8, !tbaa !8
  %158 = getelementptr inbounds i8, ptr %157, i64 12
  %159 = load i32, ptr %14, align 4, !tbaa !10
  call void @mbedtls_put_unaligned_uint32(ptr noundef %158, i32 noundef %159)
  call void @llvm.lifetime.end.p0(i64 4, ptr %17) #8
  call void @llvm.lifetime.end.p0(i64 4, ptr %16) #8
  call void @llvm.lifetime.end.p0(i64 4, ptr %15) #8
  call void @llvm.lifetime.end.p0(i64 4, ptr %14) #8
  call void @llvm.lifetime.end.p0(i64 4, ptr %13) #8
  call void @llvm.lifetime.end.p0(i64 4, ptr %12) #8
  call void @llvm.lifetime.end.p0(i64 4, ptr %11) #8
  call void @llvm.lifetime.end.p0(i64 4, ptr %10) #8
  call void @llvm.lifetime.end.p0(i64 4, ptr %9) #8
  call void @llvm.lifetime.end.p0(i64 4, ptr %8) #8
  call void @llvm.lifetime.end.p0(i64 4, ptr %7) #8
  call void @llvm.lifetime.end.p0(i64 4, ptr %6) #8
  call void @llvm.lifetime.end.p0(i64 8, ptr %5) #8
  ret void
}

; Function Attrs: nounwind uwtable
define hidden i32 @mbedtls_poly1305_finish(ptr noundef %0, ptr noundef %1) #0 {
  %3 = alloca ptr, align 8
  %4 = alloca ptr, align 8
  store ptr %0, ptr %3, align 8, !tbaa !3
  store ptr %1, ptr %4, align 8, !tbaa !8
  %5 = load ptr, ptr %3, align 8, !tbaa !3
  %6 = getelementptr inbounds nuw %struct.mbedtls_poly1305_context, ptr %5, i32 0, i32 4
  %7 = load i64, ptr %6, align 8, !tbaa !12
  %8 = icmp ugt i64 %7, 0
  br i1 %8, label %9, label %34

9:                                                ; preds = %2
  %10 = load ptr, ptr %3, align 8, !tbaa !3
  %11 = getelementptr inbounds nuw %struct.mbedtls_poly1305_context, ptr %10, i32 0, i32 3
  %12 = load ptr, ptr %3, align 8, !tbaa !3
  %13 = getelementptr inbounds nuw %struct.mbedtls_poly1305_context, ptr %12, i32 0, i32 4
  %14 = load i64, ptr %13, align 8, !tbaa !12
  %15 = getelementptr inbounds nuw [16 x i8], ptr %11, i64 0, i64 %14
  store i8 1, ptr %15, align 1, !tbaa !19
  %16 = load ptr, ptr %3, align 8, !tbaa !3
  %17 = getelementptr inbounds nuw %struct.mbedtls_poly1305_context, ptr %16, i32 0, i32 4
  %18 = load i64, ptr %17, align 8, !tbaa !12
  %19 = add i64 %18, 1
  store i64 %19, ptr %17, align 8, !tbaa !12
  %20 = load ptr, ptr %3, align 8, !tbaa !3
  %21 = getelementptr inbounds nuw %struct.mbedtls_poly1305_context, ptr %20, i32 0, i32 3
  %22 = load ptr, ptr %3, align 8, !tbaa !3
  %23 = getelementptr inbounds nuw %struct.mbedtls_poly1305_context, ptr %22, i32 0, i32 4
  %24 = load i64, ptr %23, align 8, !tbaa !12
  %25 = getelementptr inbounds nuw [16 x i8], ptr %21, i64 0, i64 %24
  %26 = load ptr, ptr %3, align 8, !tbaa !3
  %27 = getelementptr inbounds nuw %struct.mbedtls_poly1305_context, ptr %26, i32 0, i32 4
  %28 = load i64, ptr %27, align 8, !tbaa !12
  %29 = sub i64 16, %28
  call void @llvm.memset.p0.i64(ptr align 1 %25, i8 0, i64 %29, i1 false)
  %30 = load ptr, ptr %3, align 8, !tbaa !3
  %31 = load ptr, ptr %3, align 8, !tbaa !3
  %32 = getelementptr inbounds nuw %struct.mbedtls_poly1305_context, ptr %31, i32 0, i32 3
  %33 = getelementptr inbounds [16 x i8], ptr %32, i64 0, i64 0
  call void @poly1305_process(ptr noundef %30, i64 noundef 1, ptr noundef %33, i32 noundef 0)
  br label %34

34:                                               ; preds = %9, %2
  %35 = load ptr, ptr %3, align 8, !tbaa !3
  %36 = load ptr, ptr %4, align 8, !tbaa !8
  call void @poly1305_compute_mac(ptr noundef %35, ptr noundef %36)
  ret i32 0
}