; Function Attrs: nofree norecurse nosync nounwind memory(argmem: readwrite) uwtable
define hidden noundef i32 @mbedtls_poly1305_finish(ptr noundef captures(none) %0, ptr noundef writeonly captures(none) initializes((0, 16)) %1) local_unnamed_addr #2 {
  %3 = getelementptr inbounds nuw i8, ptr %0, i64 72
  %4 = load i64, ptr %3, align 8, !tbaa !7
  %.not = icmp eq i64 %4, 0
  br i1 %.not, label %12, label %5

5:                                                ; preds = %2
  %6 = getelementptr inbounds nuw i8, ptr %0, i64 52
  %7 = getelementptr inbounds nuw [16 x i8], ptr %6, i64 0, i64 %4
  store i8 1, ptr %7, align 1, !tbaa !12
  %8 = load i64, ptr %3, align 8, !tbaa !7
  %9 = add i64 %8, 1
  store i64 %9, ptr %3, align 8, !tbaa !7
  %10 = getelementptr inbounds nuw [16 x i8], ptr %6, i64 0, i64 %9
  %11 = sub i64 15, %8
  tail call void @llvm.memset.p0.i64(ptr nonnull align 1 %10, i8 0, i64 %11, i1 false)
  tail call fastcc void @poly1305_process(ptr noundef nonnull %0, i64 noundef 1, ptr noundef nonnull %6, i32 noundef 0)
  br label %12

12:                                               ; preds = %5, %2
  %13 = getelementptr inbounds nuw i8, ptr %0, i64 32
  %14 = load i32, ptr %13, align 8, !tbaa !3
  %15 = getelementptr inbounds nuw i8, ptr %0, i64 36
  %16 = load i32, ptr %15, align 4, !tbaa !3
  %17 = getelementptr inbounds nuw i8, ptr %0, i64 40
  %18 = load i32, ptr %17, align 8, !tbaa !3
  %19 = getelementptr inbounds nuw i8, ptr %0, i64 44
  %20 = load i32, ptr %19, align 4, !tbaa !3
  %21 = getelementptr inbounds nuw i8, ptr %0, i64 48
  %22 = load i32, ptr %21, align 8, !tbaa !3
  %23 = zext i32 %14 to i64
  %24 = add nuw nsw i64 %23, 5
  %25 = trunc i64 %24 to i32
  %26 = zext i32 %16 to i64
  %27 = lshr i64 %24, 32
  %28 = add nuw nsw i64 %27, %26
  %29 = trunc i64 %28 to i32
  %30 = zext i32 %18 to i64
  %31 = lshr i64 %28, 32
  %32 = add nuw nsw i64 %31, %30
  %33 = trunc i64 %32 to i32
  %34 = zext i32 %20 to i64
  %35 = lshr i64 %32, 32
  %36 = add nuw nsw i64 %35, %34
  %37 = trunc i64 %36 to i32
  %38 = lshr i64 %36, 32
  %39 = trunc nuw nsw i64 %38 to i32
  %40 = add i32 %22, %39
  %41 = lshr i32 %40, 2
  %42 = sub nsw i32 0, %41
  %43 = add nsw i32 %41, -1
  %44 = and i32 %43, %14
  %45 = and i32 %42, %25
  %46 = or i32 %44, %45
  %47 = and i32 %43, %16
  %48 = and i32 %42, %29
  %49 = or i32 %47, %48
  %50 = and i32 %43, %18
  %51 = and i32 %42, %33
  %52 = or i32 %50, %51
  %53 = and i32 %43, %20
  %54 = and i32 %42, %37
  %55 = or i32 %53, %54
  %56 = getelementptr inbounds nuw i8, ptr %0, i64 16
  %57 = load i32, ptr %56, align 8, !tbaa !3
  %add.narrowed.i = add i32 %46, %57
  %add.narrowed.overflow.i = icmp ult i32 %add.narrowed.i, %46
  %58 = zext i32 %49 to i64
  %59 = getelementptr inbounds nuw i8, ptr %0, i64 20
  %60 = load i32, ptr %59, align 4, !tbaa !3
  %61 = zext i32 %60 to i64
  %62 = add nuw nsw i64 %58, %61
  %63 = zext i1 %add.narrowed.overflow.i to i64
  %64 = add nuw nsw i64 %62, %63
  %65 = trunc i64 %64 to i32
  %66 = zext i32 %52 to i64
  %67 = getelementptr inbounds nuw i8, ptr %0, i64 24
  %68 = load i32, ptr %67, align 8, !tbaa !3
  %69 = zext i32 %68 to i64
  %70 = add nuw nsw i64 %66, %69
  %71 = lshr i64 %64, 32
  %72 = add nuw nsw i64 %70, %71
  %73 = trunc i64 %72 to i32
  %74 = getelementptr inbounds nuw i8, ptr %0, i64 28
  %75 = load i32, ptr %74, align 4, !tbaa !3
  %76 = lshr i64 %72, 32
  %77 = trunc nuw nsw i64 %76 to i32
  %78 = add i32 %55, %75
  %79 = add i32 %78, %77
  store i32 %add.narrowed.i, ptr %1, align 1
  %80 = getelementptr inbounds nuw i8, ptr %1, i64 4
  store i32 %65, ptr %80, align 1
  %81 = getelementptr inbounds nuw i8, ptr %1, i64 8
  store i32 %73, ptr %81, align 1
  %82 = getelementptr inbounds nuw i8, ptr %1, i64 12
  store i32 %79, ptr %82, align 1
  ret i32 0
}